target datalayout = "e-m:e-p270:32:32-p271:32:32-p272:64:64-i64:64-i128:128-f80:128-n8:16:32:64-S128"
target triple = "x86_64-pc-linux-gnu"

%"class.cv::Mat" = type { i32, i32, i32, i32, ptr, ptr, ptr, ptr, ptr, ptr, %"struct.cv::MatSize", %"struct.cv::MatStep" }
%"struct.cv::MatSize" = type { ptr }
%"struct.cv::MatStep" = type { ptr, [2 x i64] }
%"class.cv::Range" = type { i32, i32 }

@_ZN2cv3MatD1Ev = unnamed_addr alias void (ptr), ptr @_ZN2cv3MatD2Ev
@_ZN2cv3MatC1ERKS0_RKNS_5RangeES5_ = unnamed_addr alias void (ptr, ptr, ptr, ptr), ptr @_ZN2cv3MatC2ERKS0_RKNS_5RangeES5_

; Function Attrs: inlinehint mustprogress uwtable
define linkonce_odr hidden i64 @_ZN2cv5Range3allEv() #10 comdat align 2 {
  %1 = alloca %"class.cv::Range", align 4
  call void @_ZN2cv5RangeC2Eii(ptr noundef nonnull align 4 dereferenceable(8) %1, i32 noundef -2147483648, i32 noundef 2147483647)
  %2 = load i64, ptr %1, align 4
  ret i64 %2
}

; Function Attrs: inlinehint mustprogress nounwind uwtable
define linkonce_odr hidden void @_ZN2cv5RangeC2Eii(ptr noundef nonnull align 4 dereferenceable(8) %0, i32 noundef %1, i32 noundef %2) unnamed_addr #6 comdat align 2 {
  %4 = alloca ptr, align 8
  %5 = alloca i32, align 4
  %6 = alloca i32, align 4
  store ptr %0, ptr %4, align 8, !tbaa !114
  store i32 %1, ptr %5, align 4, !tbaa !26
  store i32 %2, ptr %6, align 4, !tbaa !26
  %7 = load ptr, ptr %4, align 8
  %8 = getelementptr inbounds nuw %"class.cv::Range", ptr %7, i32 0, i32 0
  %9 = load i32, ptr %5, align 4, !tbaa !26
  store i32 %9, ptr %8, align 4, !tbaa !118
  %10 = getelementptr inbounds nuw %"class.cv::Range", ptr %7, i32 0, i32 1
  %11 = load i32, ptr %6, align 4, !tbaa !26
  store i32 %11, ptr %10, align 4, !tbaa !120
  ret void
}

; Function Attrs: inlinehint mustprogress uwtable
define linkonce_odr hidden void @_ZNK2cv3Mat8rowRangeEii(ptr dead_on_unwind noalias writable sret(%"class.cv::Mat") align 8 %0, ptr noundef nonnull align 8 dereferenceable(96) %1, i32 noundef %2, i32 noundef %3) #10 comdat align 2 {
  %5 = alloca ptr, align 8
  %6 = alloca ptr, align 8
  %7 = alloca i32, align 4
  %8 = alloca i32, align 4
  %9 = alloca %"class.cv::Range", align 4
  %10 = alloca %"class.cv::Range", align 4
  store ptr %0, ptr %5, align 8
  store ptr %1, ptr %6, align 8, !tbaa !34
  store i32 %2, ptr %7, align 4, !tbaa !26
  store i32 %3, ptr %8, align 4, !tbaa !26
  %11 = load ptr, ptr %6, align 8
  call void @llvm.lifetime.start.p0(i64 8, ptr %9) #7
  %12 = load i32, ptr %7, align 4, !tbaa !26
  %13 = load i32, ptr %8, align 4, !tbaa !26
  call void @_ZN2cv5RangeC2Eii(ptr noundef nonnull align 4 dereferenceable(8) %9, i32 noundef %12, i32 noundef %13)
  call void @llvm.lifetime.start.p0(i64 8, ptr %10) #7
  %14 = call i64 @_ZN2cv5Range3allEv()
  store i64 %14, ptr %10, align 4
  call void @_ZN2cv3MatC1ERKS0_RKNS_5RangeES5_(ptr noundef nonnull align 8 dereferenceable(96) %0, ptr noundef nonnull align 8 dereferenceable(96) %11, ptr noundef nonnull align 4 dereferenceable(8) %9, ptr noundef nonnull align 4 dereferenceable(8) %10)
  call void @llvm.lifetime.end.p0(i64 8, ptr %10) #7
  call void @llvm.lifetime.end.p0(i64 8, ptr %9) #7
  ret void
}

; Function Attrs: mustprogress uwtable
define void @_ZN2cv3Mat6resizeEmRKNS_7Scalar_IdEE(ptr noundef nonnull align 8 dereferenceable(96) %0, i64 noundef %1, ptr noundef nonnull align 8 dereferenceable(32) %2) #1 align 2 personality ptr @__gxx_personality_v0 {
  %4 = alloca ptr, align 8
  %5 = alloca i64, align 8
  %6 = alloca ptr, align 8
  %7 = alloca i32, align 4
  %8 = alloca %"class.cv::Mat", align 8
  %9 = alloca ptr, align 8
  %10 = alloca i32, align 4
  store ptr %0, ptr %4, align 8, !tbaa !34
  store i64 %1, ptr %5, align 8, !tbaa !31
  store ptr %2, ptr %6, align 8, !tbaa !95
  %11 = load ptr, ptr %4, align 8
  call void @llvm.lifetime.start.p0(i64 4, ptr %7) #7
  %12 = getelementptr inbounds nuw %"class.cv::Mat", ptr %11, i32 0, i32 10
  %13 = getelementptr inbounds nuw %"struct.cv::MatSize", ptr %12, i32 0, i32 0
  %14 = load ptr, ptr %13, align 8, !tbaa !76
  %15 = getelementptr inbounds i32, ptr %14, i64 0
  %16 = load i32, ptr %15, align 4, !tbaa !26
  store i32 %16, ptr %7, align 4, !tbaa !26
  %17 = load i64, ptr %5, align 8, !tbaa !31
  call void @_ZN2cv3Mat6resizeEm(ptr noundef nonnull align 8 dereferenceable(96) %11, i64 noundef %17)
  %18 = getelementptr inbounds nuw %"class.cv::Mat", ptr %11, i32 0, i32 10
  %19 = getelementptr inbounds nuw %"struct.cv::MatSize", ptr %18, i32 0, i32 0
  %20 = load ptr, ptr %19, align 8, !tbaa !76
  %21 = getelementptr inbounds i32, ptr %20, i64 0
  %22 = load i32, ptr %21, align 4, !tbaa !26
  %23 = load i32, ptr %7, align 4, !tbaa !26
  %24 = icmp sgt i32 %22, %23
  br i1 %24, label %25, label %39

25:                                               ; preds = %3
  call void @llvm.lifetime.start.p0(i64 96, ptr %8) #7
  %26 = load i32, ptr %7, align 4, !tbaa !26
  %27 = getelementptr inbounds nuw %"class.cv::Mat", ptr %11, i32 0, i32 10
  %28 = getelementptr inbounds nuw %"struct.cv::MatSize", ptr %27, i32 0, i32 0
  %29 = load ptr, ptr %28, align 8, !tbaa !76
  %30 = getelementptr inbounds i32, ptr %29, i64 0
  %31 = load i32, ptr %30, align 4, !tbaa !26
  call void @_ZNK2cv3Mat8rowRangeEii(ptr dead_on_unwind writable sret(%"class.cv::Mat") align 8 %8, ptr noundef nonnull align 8 dereferenceable(96) %11, i32 noundef %26, i32 noundef %31)
  %32 = load ptr, ptr %6, align 8, !tbaa !95
  %33 = invoke noundef nonnull align 8 dereferenceable(96) ptr @_ZN2cv3MataSERKNS_7Scalar_IdEE(ptr noundef nonnull align 8 dereferenceable(96) %8, ptr noundef nonnull align 8 dereferenceable(32) %32)
          to label %34 unwind label %35

34:                                               ; preds = %25
  call void @_ZN2cv3MatD1Ev(ptr noundef nonnull align 8 dereferenceable(96) %8) #7
  call void @llvm.lifetime.end.p0(i64 96, ptr %8) #7
  br label %39

35:                                               ; preds = %25
  %36 = landingpad { ptr, i32 }
          cleanup
  %37 = extractvalue { ptr, i32 } %36, 0
  store ptr %37, ptr %9, align 8
  %38 = extractvalue { ptr, i32 } %36, 1
  store i32 %38, ptr %10, align 4
  call void @_ZN2cv3MatD1Ev(ptr noundef nonnull align 8 dereferenceable(96) %8) #7
  call void @llvm.lifetime.end.p0(i64 96, ptr %8) #7
  call void @llvm.lifetime.end.p0(i64 4, ptr %7) #7
  br label %40

39:                                               ; preds = %34, %3
  call void @llvm.lifetime.end.p0(i64 4, ptr %7) #7
  ret void

40:                                               ; preds = %35
  %41 = load ptr, ptr %9, align 8
  %42 = load i32, ptr %10, align 4
  %43 = insertvalue { ptr, i32 } poison, ptr %41, 0
  %44 = insertvalue { ptr, i32 } %43, i32 %42, 1
  resume { ptr, i32 } %44
}