; Function Attrs: mustprogress uwtable
define void @_ZN2cv3Mat6resizeEmRKNS_7Scalar_IdEE(ptr noundef nonnull align 8 dereferenceable(96) %0, i64 noundef %1, ptr noundef nonnull align 8 dereferenceable(32) %2) local_unnamed_addr #1 align 2 personality ptr @__gxx_personality_v0 {
  %4 = alloca %"class.cv::Range", align 4
  %5 = alloca %"class.cv::Range", align 8
  %6 = alloca %"class.cv::Mat", align 8
  %7 = getelementptr inbounds nuw i8, ptr %0, i64 64
  %8 = load ptr, ptr %7, align 8, !tbaa !58
  %9 = load i32, ptr %8, align 4, !tbaa !23
  tail call void @_ZN2cv3Mat6resizeEm(ptr noundef nonnull align 8 dereferenceable(96) %0, i64 noundef %1)
  %10 = load ptr, ptr %7, align 8, !tbaa !58
  %11 = load i32, ptr %10, align 4, !tbaa !23
  %12 = icmp sgt i32 %11, %9
  br i1 %12, label %13, label %19

13:                                               ; preds = %3
  call void @llvm.lifetime.start.p0(i64 96, ptr nonnull %6) #24
  call void @llvm.lifetime.start.p0(i64 8, ptr nonnull %4) #24, !noalias !113
  store i32 %9, ptr %4, align 4, !tbaa !91, !noalias !113
  %14 = getelementptr inbounds nuw i8, ptr %4, i64 4
  store i32 %11, ptr %14, align 4, !tbaa !108, !noalias !113
  call void @llvm.lifetime.start.p0(i64 8, ptr nonnull %5) #24, !noalias !113
  store i64 9223372034707292160, ptr %5, align 8, !noalias !113
  call void @_ZN2cv3MatC1ERKS0_RKNS_5RangeES5_(ptr noundef nonnull align 8 dereferenceable(96) %6, ptr noundef nonnull align 8 dereferenceable(96) %0, ptr noundef nonnull align 4 dereferenceable(8) %4, ptr noundef nonnull align 4 dereferenceable(8) %5)
  call void @llvm.lifetime.end.p0(i64 8, ptr nonnull %5) #24, !noalias !113
  call void @llvm.lifetime.end.p0(i64 8, ptr nonnull %4) #24, !noalias !113
  %15 = invoke noundef nonnull align 8 dereferenceable(96) ptr @_ZN2cv3MataSERKNS_7Scalar_IdEE(ptr noundef nonnull align 8 dereferenceable(96) %6, ptr noundef nonnull align 8 dereferenceable(32) %2)
          to label %16 unwind label %17

16:                                               ; preds = %13
  call void @_ZN2cv3MatD1Ev(ptr noundef nonnull align 8 dereferenceable(96) %6) #24
  call void @llvm.lifetime.end.p0(i64 96, ptr nonnull %6) #24
  br label %19

17:                                               ; preds = %13
  %18 = landingpad { ptr, i32 }
          cleanup
  call void @_ZN2cv3MatD1Ev(ptr noundef nonnull align 8 dereferenceable(96) %6) #24
  call void @llvm.lifetime.end.p0(i64 96, ptr nonnull %6) #24
  resume { ptr, i32 } %18

19:                                               ; preds = %16, %3
  ret void
}